; Function Attrs: mustprogress nounwind uwtable
define internal fastcc void @_ZN12_GLOBAL__N_17rules_t6bram_tD2Ev(ptr nocapture noundef nonnull readonly align 8 dereferenceable(168) %0) unnamed_addr #3 align 2 personality ptr @__gxx_personality_v0 {
  %2 = getelementptr inbounds i8, ptr %0, i64 144
  %3 = load ptr, ptr %2, align 8
  %.not.i.i.i = icmp eq ptr %3, null
  br i1 %.not.i.i.i, label %_ZNSt6vectorIiSaIiEED2Ev.exit, label %4

4:                                                ; preds = %1
  tail call void @_ZdlPv(ptr noundef nonnull %3) #25
  br label %_ZNSt6vectorIiSaIiEED2Ev.exit

_ZNSt6vectorIiSaIiEED2Ev.exit:                    ; preds = %1, %4
  %5 = getelementptr inbounds i8, ptr %0, i64 120
  %6 = load ptr, ptr %5, align 8
  %.not.i.i.i1 = icmp eq ptr %6, null
  br i1 %.not.i.i.i1, label %_ZNSt6vectorIiSaIiEED2Ev.exit2, label %7

7:                                                ; preds = %_ZNSt6vectorIiSaIiEED2Ev.exit
  tail call void @_ZdlPv(ptr noundef nonnull %6) #25
  br label %_ZNSt6vectorIiSaIiEED2Ev.exit2

_ZNSt6vectorIiSaIiEED2Ev.exit2:                   ; preds = %_ZNSt6vectorIiSaIiEED2Ev.exit, %7
  %8 = getelementptr inbounds i8, ptr %0, i64 96
  %9 = load ptr, ptr %8, align 8
  %.not.i.i.i3 = icmp eq ptr %9, null
  br i1 %.not.i.i.i3, label %_ZNSt6vectorIiSaIiEED2Ev.exit4, label %10

10:                                               ; preds = %_ZNSt6vectorIiSaIiEED2Ev.exit2
  tail call void @_ZdlPv(ptr noundef nonnull %9) #25
  br label %_ZNSt6vectorIiSaIiEED2Ev.exit4

_ZNSt6vectorIiSaIiEED2Ev.exit4:                   ; preds = %_ZNSt6vectorIiSaIiEED2Ev.exit2, %10
  %11 = getelementptr inbounds i8, ptr %0, i64 72
  %12 = load ptr, ptr %11, align 8
  %.not.i.i.i5 = icmp eq ptr %12, null
  br i1 %.not.i.i.i5, label %_ZNSt6vectorIiSaIiEED2Ev.exit6, label %13

13:                                               ; preds = %_ZNSt6vectorIiSaIiEED2Ev.exit4
  tail call void @_ZdlPv(ptr noundef nonnull %12) #25
  br label %_ZNSt6vectorIiSaIiEED2Ev.exit6

_ZNSt6vectorIiSaIiEED2Ev.exit6:                   ; preds = %_ZNSt6vectorIiSaIiEED2Ev.exit4, %13
  %14 = getelementptr inbounds i8, ptr %0, i64 48
  %15 = load ptr, ptr %14, align 8
  %.not.i.i.i7 = icmp eq ptr %15, null
  br i1 %.not.i.i.i7, label %_ZNSt6vectorIiSaIiEED2Ev.exit8, label %16

16:                                               ; preds = %_ZNSt6vectorIiSaIiEED2Ev.exit6
  tail call void @_ZdlPv(ptr noundef nonnull %15) #25
  br label %_ZNSt6vectorIiSaIiEED2Ev.exit8

_ZNSt6vectorIiSaIiEED2Ev.exit8:                   ; preds = %_ZNSt6vectorIiSaIiEED2Ev.exit6, %16
  %17 = getelementptr inbounds i8, ptr %0, i64 24
  %18 = load ptr, ptr %17, align 8
  %.not.i.i.i9 = icmp eq ptr %18, null
  br i1 %.not.i.i.i9, label %_ZNSt6vectorIiSaIiEED2Ev.exit10, label %19

19:                                               ; preds = %_ZNSt6vectorIiSaIiEED2Ev.exit8
  tail call void @_ZdlPv(ptr noundef nonnull %18) #25
  br label %_ZNSt6vectorIiSaIiEED2Ev.exit10

_ZNSt6vectorIiSaIiEED2Ev.exit10:                  ; preds = %_ZNSt6vectorIiSaIiEED2Ev.exit8, %19
  %20 = load i32, ptr %0, align 8
  %21 = load i8, ptr @_ZN5Yosys5RTLIL8IdString17destruct_guard_okE, align 1
  %22 = and i8 %21, 1
  %23 = icmp ne i8 %22, 0
  %24 = icmp ne i32 %20, 0
  %or.cond.i.i = and i1 %24, %23
  br i1 %or.cond.i.i, label %25, label %_ZN5Yosys5RTLIL8IdStringD2Ev.exit

25:                                               ; preds = %_ZNSt6vectorIiSaIiEED2Ev.exit10
  %26 = sext i32 %20 to i64
  %27 = load ptr, ptr @_ZN5Yosys5RTLIL8IdString24global_refcount_storage_E, align 8
  %28 = getelementptr inbounds i32, ptr %27, i64 %26
  %29 = load i32, ptr %28, align 4
  %30 = add nsw i32 %29, -1
  store i32 %30, ptr %28, align 4
  %31 = icmp sgt i32 %29, 1
  br i1 %31, label %_ZN5Yosys5RTLIL8IdStringD2Ev.exit, label %32

32:                                               ; preds = %25
  invoke void @_ZN5Yosys5RTLIL8IdString14free_referenceEi(i32 noundef %20)
          to label %_ZN5Yosys5RTLIL8IdStringD2Ev.exit unwind label %33

33:                                               ; preds = %32
  %34 = landingpad { ptr, i32 }
          catch ptr null
  %35 = extractvalue { ptr, i32 } %34, 0
  tail call void @__clang_call_terminate(ptr %35) #28
  unreachable

_ZN5Yosys5RTLIL8IdStringD2Ev.exit:                ; preds = %_ZNSt6vectorIiSaIiEED2Ev.exit10, %25, %32
  ret void
}